; Function Attrs: nounwind uwtable
define range(i32 0, 2) i32 @BN_rshift(ptr noundef %0, ptr noundef readonly captures(address) %1, i32 noundef %2) local_unnamed_addr #0 {
  %4 = icmp slt i32 %2, 0
  br i1 %4, label %5, label %6

5:                                                ; preds = %3
  tail call void @ERR_new() #4
  tail call void @ERR_set_debug(ptr noundef nonnull @.str, i32 noundef 155, ptr noundef nonnull @__func__.BN_rshift) #4
  tail call void (i32, i32, ptr, ...) @ERR_set_error(i32 noundef 3, i32 noundef 119, ptr noundef null) #4
  br label %46

6:                                                ; preds = %3
  %7 = lshr i32 %2, 6
  %8 = getelementptr inbounds nuw i8, ptr %1, i64 8
  %9 = load i32, ptr %8, align 8, !tbaa !10
  %.not.i = icmp slt i32 %7, %9
  br i1 %.not.i, label %11, label %10

10:                                               ; preds = %6
  tail call void @BN_zero_ex(ptr noundef %0) #4
  br label %bn_rshift_fixed_top.exit

11:                                               ; preds = %6
  %12 = and i32 %2, 63
  %13 = sub nsw i32 0, %2
  %14 = and i32 %13, 63
  %15 = zext nneg i32 %14 to i64
  %16 = sub nsw i64 0, %15
  %17 = lshr i64 %16, 8
  %18 = or i64 %17, %16
  %19 = sub nsw i32 %9, %7
  %.not47.i = icmp eq ptr %0, %1
  br i1 %.not47.i, label %23, label %20

20:                                               ; preds = %11
  %21 = tail call ptr @bn_wexpand(ptr noundef %0, i32 noundef %19) #4
  %22 = icmp eq ptr %21, null
  br i1 %22, label %bn_rshift_fixed_top.exit, label %23

23:                                               ; preds = %20, %11
  %24 = load ptr, ptr %0, align 8, !tbaa !11
  %25 = load ptr, ptr %1, align 8, !tbaa !11
  %26 = zext nneg i32 %7 to i64
  %27 = getelementptr inbounds nuw i64, ptr %25, i64 %26
  %28 = load i64, ptr %27, align 8, !tbaa !12
  %29 = icmp sgt i32 %19, 1
  %30 = zext nneg i32 %12 to i64
  br i1 %29, label %.lr.ph.i, label %._crit_edge.i

.lr.ph.i:                                         ; preds = %23
  %31 = add nsw i32 %19, -1
  %wide.trip.count.i = zext nneg i32 %31 to i64
  br label %32

32:                                               ; preds = %32, %.lr.ph.i
  %indvars.iv.i = phi i64 [ 0, %.lr.ph.i ], [ %indvars.iv.next.i, %32 ]
  %.04249.i = phi i64 [ %28, %.lr.ph.i ], [ %34, %32 ]
  %indvars.iv.next.i = add nuw nsw i64 %indvars.iv.i, 1
  %33 = getelementptr inbounds nuw i64, ptr %27, i64 %indvars.iv.next.i
  %34 = load i64, ptr %33, align 8, !tbaa !12
  %35 = lshr i64 %.04249.i, %30
  %36 = shl i64 %34, %15
  %37 = and i64 %36, %18
  %38 = or i64 %37, %35
  %39 = getelementptr inbounds nuw i64, ptr %24, i64 %indvars.iv.i
  store i64 %38, ptr %39, align 8, !tbaa !12
  %exitcond.not.i = icmp eq i64 %indvars.iv.next.i, %wide.trip.count.i
  br i1 %exitcond.not.i, label %._crit_edge.i, label %32, !llvm.loop !18

._crit_edge.i:                                    ; preds = %32, %23
  %.043.lcssa.i = phi i64 [ 0, %23 ], [ %wide.trip.count.i, %32 ]
  %.042.lcssa.i = phi i64 [ %28, %23 ], [ %34, %32 ]
  %40 = lshr i64 %.042.lcssa.i, %30
  %41 = getelementptr inbounds nuw i64, ptr %24, i64 %.043.lcssa.i
  store i64 %40, ptr %41, align 8, !tbaa !12
  %42 = getelementptr inbounds nuw i8, ptr %1, i64 16
  %43 = load i32, ptr %42, align 8, !tbaa !3
  %44 = getelementptr inbounds nuw i8, ptr %0, i64 16
  store i32 %43, ptr %44, align 8, !tbaa !3
  %45 = getelementptr inbounds nuw i8, ptr %0, i64 8
  store i32 %19, ptr %45, align 8, !tbaa !10
  br label %bn_rshift_fixed_top.exit

bn_rshift_fixed_top.exit:                         ; preds = %10, %20, %._crit_edge.i
  %.0.i = phi i32 [ 1, %10 ], [ 1, %._crit_edge.i ], [ 0, %20 ]
  tail call void @bn_correct_top(ptr noundef %0) #4
  br label %46

46:                                               ; preds = %bn_rshift_fixed_top.exit, %5
  %.0 = phi i32 [ 0, %5 ], [ %.0.i, %bn_rshift_fixed_top.exit ]
  ret i32 %.0
}